; Function Attrs: mustprogress uwtable
define internal noundef zeroext i1 @_ZN12_GLOBAL__N_119DryRunCommandRunner12StartCommandEP4Edge(ptr noundef nonnull align 8 dereferenceable(88) %0, ptr noundef %1) unnamed_addr #2 align 2 {
  %3 = alloca ptr, align 8
  store ptr %1, ptr %3, align 8, !tbaa !88
  %4 = getelementptr inbounds nuw i8, ptr %0, i64 56
  %5 = load ptr, ptr %4, align 8, !tbaa !307
  %6 = getelementptr inbounds nuw i8, ptr %0, i64 72
  %7 = load ptr, ptr %6, align 8, !tbaa !308
  %8 = getelementptr inbounds i8, ptr %7, i64 -8
  %.not.i.i = icmp eq ptr %5, %8
  br i1 %.not.i.i, label %11, label %9

9:                                                ; preds = %2
  store ptr %1, ptr %5, align 8, !tbaa !88
  %10 = getelementptr inbounds nuw i8, ptr %5, i64 8
  store ptr %10, ptr %4, align 8, !tbaa !307
  br label %_ZNSt5queueIP4EdgeSt5dequeIS1_SaIS1_EEE4pushERKS1_.exit

11:                                               ; preds = %2
  %12 = getelementptr inbounds nuw i8, ptr %0, i64 8
  call void @_ZNSt5dequeIP4EdgeSaIS1_EE16_M_push_back_auxIJRKS1_EEEvDpOT_(ptr noundef nonnull align 8 dereferenceable(80) %12, ptr noundef nonnull align 8 dereferenceable(8) %3)
  br label %_ZNSt5queueIP4EdgeSt5dequeIS1_SaIS1_EEE4pushERKS1_.exit

_ZNSt5queueIP4EdgeSt5dequeIS1_SaIS1_EEE4pushERKS1_.exit: ; preds = %9, %11
  ret i1 true
}